(lp0
(lp1
S'npr'
p2
aVpbkdf2_sha256$12000$PN4ruaDk9X19$7tb1IR5Qh1rl71qacNwerdfim1dM04JUuAZzxhxwKTQ=
p3
aI01
aa(lp4
S'user'
p5
aVpbkdf2_sha256$12000$8Ih3DCG6DlVu$YQjcQj/nc9IAQ94yeHkmOz6rpmKryz8OS7C8zcXBE3U=
p6
aI00
aa.