(lp0
(lp1
S'npr'
p2
aVpbkdf2_sha256$12000$aG3r8E7tkMPe$/+IrnJlGCWCnOLPSqHr/KAtIfrT78SGFuV0P7cOuU9Q=
p3
aI01
aa(lp4
S'user'
p5
aVpbkdf2_sha256$12000$otVaKJxKRPIe$RyBWtazx+W667yXldtSZAoYolTpPhv7Ueih1F+GYzbc=
p6
aI00
aa.